
 =============================
::> 'wdiss' is being called at namespaces/test/dev.cft 102.18 <::
User.[39;49mfactorial[34;49m <:> cfrTil compiled word
SourceCode for [39;49mfactorial[34;49m :> 
[39;49m: factorial ( REG: n | EAX: rec -- EAX ) rec 1 = { n @ 1 > } { rec @ n @ * rec store n -- } while ; [34;49m
Source code file location of [39;49mfactorial[34;49m : "namespaces/test/dev.cft" at 81.99
Compiled with : optimizeOn, inlineOn -- starting at address : 0xf493b0e2 -- code size = 33 bytes
 -----------------------------
Word : [39;49mfactorial[34;49m : disassembly :> 
0xf493b0e2 8b1e             mov ebx, [esi]              
0xf493b0e4 c7c001000000     mov eax, 0x1                
0xf493b0ea 81fb01000000     cmp ebx, 0x1                
0xf493b0f0 0f8e0a000000     jle 0xf493b100              	< User.[39;49mfactorial[34;49m+30 >
0xf493b0f6 0fafc3           imul eax, ebx               
0xf493b0f9 ffcb             dec ebx                     
0xf493b0fb e9eaffffff       jmp 0xf493b0ea              	< User.[39;49mfactorial[34;49m+8 >
0xf493b100 8906             mov [esi], eax              
0xf493b102 c3               ret                         
Word : 0x0f73389e4 :: Compiled at : 0x0f493b0e2
 =============================

 =============================
::> 'wdiss' is being called at namespaces/test/dev.cft 103.13 <::
User.[39;49m_ifx[34;49m <:> cfrTil compiled word
SourceCode for [39;49m_ifx[34;49m :> 
[39;49m: _ifx ( w | j ) { j 1 = } { j @ 15 <= } { j ++ } { j @ w @ wordRun drop } for ; [34;49m
Source code file location of [39;49m_ifx[34;49m : "namespaces/test/dev.cft" at 89.1
Compiled with : optimizeOn, inlineOn -- starting at address : 0xf493b10b -- code size = 81 bytes
 -----------------------------
Word : [39;49m_ifx[34;49m : disassembly :> 
0xf493b10b 897e04           mov [esi+0x4], edi          
0xf493b10e 8d7e04           lea edi, [esi+0x4]          
0xf493b111 81c608000000     add esi, 0x8                
0xf493b117 8d4704           lea eax, [edi+0x4]          
0xf493b11a c70001000000     mov dword [eax], 0x1        
0xf493b120 8b4704           mov eax, [edi+0x4]          
0xf493b123 81f80f000000     cmp eax, 0xf                
0xf493b129 0f8f20000000     jg 0xf493b14f               	< User.[39;49m_ifx[34;49m+68 >
0xf493b12f 8b4704           mov eax, [edi+0x4]          
0xf493b132 83c604           add esi, 0x4                
0xf493b135 8906             mov [esi], eax              
0xf493b137 8b47fc           mov eax, [edi-0x4]          
0xf493b13a 83c604           add esi, 0x4                
0xf493b13d 8906             mov [esi], eax              
0xf493b13f e82ed47313       call 0x8078572              	< Word.[39;49mwordRun[34;49m >
0xf493b144 83ee04           sub esi, 0x4                
0xf493b147 ff4704           inc dword [edi+0x4]         
0xf493b14a e9d1ffffff       jmp 0xf493b120              	< User.[39;49m_ifx[34;49m+21 >
0xf493b14f 8d77fc           lea esi, [edi-0x4]          
0xf493b152 8b7e04           mov edi, [esi+0x4]          
0xf493b155 81ee04000000     sub esi, 0x4                
0xf493b15b c3               ret                         
Word : 0x0f73389e4 :: Compiled at : 0x0f493b10b
 =============================

 =============================
::> 'wdiss' is being called at namespaces/test/dev.cft 104.20 <::
User.[39;49miFactorialX[34;49m <:> cfrTil compiled word
SourceCode for [39;49miFactorialX[34;49m :> 
[39;49m: iFactorialX ( n w | k ) { k 1 = } { k @ n @ <= } { k ++ } { w @ _ifx } for ; [34;49m
Source code file location of [39;49miFactorialX[34;49m : "namespaces/test/dev.cft" at 91.79
Compiled with : optimizeOn, inlineOn -- starting at address : 0xf493b164 -- code size = 69 bytes
 -----------------------------
Word : [39;49miFactorialX[34;49m : disassembly :> 
0xf493b164 897e04           mov [esi+0x4], edi          
0xf493b167 8d7e04           lea edi, [esi+0x4]          
0xf493b16a 81c608000000     add esi, 0x8                
0xf493b170 8d4704           lea eax, [edi+0x4]          
0xf493b173 c70001000000     mov dword [eax], 0x1        
0xf493b179 8b4704           mov eax, [edi+0x4]          
0xf493b17c 8b4ff8           mov ecx, [edi-0x8]          
0xf493b17f 3bc1             cmp eax, ecx                
0xf493b181 0f8f15000000     jg 0xf493b19c               	< User.[39;49miFactorialX[34;49m+56 >
0xf493b187 8b47fc           mov eax, [edi-0x4]          
0xf493b18a 83c604           add esi, 0x4                
0xf493b18d 8906             mov [esi], eax              
0xf493b18f e877ffffff       call 0xf493b10b             	< User.[39;49m_ifx[34;49m >
0xf493b194 ff4704           inc dword [edi+0x4]         
0xf493b197 e9ddffffff       jmp 0xf493b179              	< User.[39;49miFactorialX[34;49m+21 >
0xf493b19c 8d77fc           lea esi, [edi-0x4]          
0xf493b19f 8b7e04           mov edi, [esi+0x4]          
0xf493b1a2 81ee08000000     sub esi, 0x8                
0xf493b1a8 c3               ret                         
Word : 0x0f73389e4 :: Compiled at : 0x0f493b164
 =============================

 =============================
::> 'wdiss' is being called at namespaces/test/dev.cft 105.13 <::
User.[39;49m_ffx[34;49m <:> cfrTil compiled word
SourceCode for [39;49m_ffx[34;49m :> 
[39;49m: _ffx ( n w | t ) nl 7 w @ wordRun decimal p nl { t 0 = } { t @ n @ < } { t ++ } { 100000 w @ iFactorialX } for ; [34;49m
Source code file location of [39;49m_ffx[34;49m : "namespaces/test/dev.cft" at 93.114
Compiled with : optimizeOn, inlineOn -- starting at address : 0xf493b1b1 -- code size = 124 bytes
 -----------------------------
Word : [39;49m_ffx[34;49m : disassembly :> 
0xf493b1b1 897e04           mov [esi+0x4], edi          
0xf493b1b4 8d7e04           lea edi, [esi+0x4]          
0xf493b1b7 81c608000000     add esi, 0x8                
0xf493b1bd e8afac7313       call 0x8075e71              	< Compiler.[39;49mnl[34;49m >
0xf493b1c2 c7c007000000     mov eax, 0x7                
0xf493b1c8 83c604           add esi, 0x4                
0xf493b1cb 8906             mov [esi], eax              
0xf493b1cd 8b47fc           mov eax, [edi-0x4]          
0xf493b1d0 83c604           add esi, 0x4                
0xf493b1d3 8906             mov [esi], eax              
0xf493b1d5 e898d37313       call 0x8078572              	< Word.[39;49mwordRun[34;49m >
0xf493b1da e8b4c37313       call 0x8077593              	< System.[39;49mdecimal[34;49m >
0xf493b1df e86593ffff       call 0xf4934549             	< Io.[39;49mp[34;49m >
0xf493b1e4 e888ac7313       call 0x8075e71              	< Compiler.[39;49mnl[34;49m >
0xf493b1e9 8d4704           lea eax, [edi+0x4]          
0xf493b1ec c70000000000     mov dword [eax], 0x0        
0xf493b1f2 8b4704           mov eax, [edi+0x4]          
0xf493b1f5 8b4ff8           mov ecx, [edi-0x8]          
0xf493b1f8 3bc1             cmp eax, ecx                
0xf493b1fa 0f8d20000000     jge 0xf493b220              	< User.[39;49m_ffx[34;49m+111 >
0xf493b200 c7c0a0860100     mov eax, 0x186a0            
0xf493b206 83c604           add esi, 0x4                
0xf493b209 8906             mov [esi], eax              
0xf493b20b 8b47fc           mov eax, [edi-0x4]          
0xf493b20e 83c604           add esi, 0x4                
0xf493b211 8906             mov [esi], eax              
0xf493b213 e84cffffff       call 0xf493b164             	< User.[39;49miFactorialX[34;49m >
0xf493b218 ff4704           inc dword [edi+0x4]         
0xf493b21b e9d2ffffff       jmp 0xf493b1f2              	< User.[39;49m_ffx[34;49m+65 >
0xf493b220 8d77fc           lea esi, [edi-0x4]          
0xf493b223 8b7e04           mov edi, [esi+0x4]          
0xf493b226 81ee08000000     sub esi, 0x8                
0xf493b22c c3               ret                         
Word : 0x0f73389e4 :: Compiled at : 0x0f493b1b1
 =============================

 =============================
::> 'wdiss' is being called at namespaces/test/dev.cft 106.12 <::
User.[39;49mffx[34;49m <:> cfrTil compiled word
SourceCode for [39;49mffx[34;49m :> 
[39;49m: ffx ( w | d ) 1 ti d w @ find = d @ wdiss 3 d @ _ffx 1 time ; [34;49m
Source code file location of [39;49mffx[34;49m : "namespaces/test/dev.cft" at 98.63
Compiled with : optimizeOn, inlineOn -- starting at address : 0xf493b27f -- code size = 125 bytes
 -----------------------------
Word : [39;49mffx[34;49m : disassembly :> 
0xf493b27f 897e04           mov [esi+0x4], edi          
0xf493b282 8d7e04           lea edi, [esi+0x4]          
0xf493b285 81c608000000     add esi, 0x8                
0xf493b28b c7c001000000     mov eax, 0x1                
0xf493b291 83c604           add esi, 0x4                
0xf493b294 8906             mov [esi], eax              
0xf493b296 e8a596ffff       call 0xf4934940             	< System.[39;49mti[34;49m >
0xf493b29b 8d4704           lea eax, [edi+0x4]          
0xf493b29e 83c604           add esi, 0x4                
0xf493b2a1 8906             mov [esi], eax              
0xf493b2a3 8b47fc           mov eax, [edi-0x4]          
0xf493b2a6 83c604           add esi, 0x4                
0xf493b2a9 8906             mov [esi], eax              
0xf493b2ab e83bc67213       call 0x80678eb              	< Namespace.[39;49mfind[34;49m >
0xf493b2b0 8b0e             mov ecx, [esi]              
0xf493b2b2 8b46fc           mov eax, [esi-0x4]          
0xf493b2b5 8908             mov [eax], ecx              
0xf493b2b7 83ee08           sub esi, 0x8                
0xf493b2ba 8b4704           mov eax, [edi+0x4]          
0xf493b2bd 83c604           add esi, 0x4                
0xf493b2c0 8906             mov [esi], eax              
0xf493b2c2 e87095ffff       call 0xf4934837             	< System.[39;49mwinfo[34;49m >
0xf493b2c7 c7c003000000     mov eax, 0x3                
0xf493b2cd 83c604           add esi, 0x4                
0xf493b2d0 8906             mov [esi], eax              
0xf493b2d2 8b4704           mov eax, [edi+0x4]          
0xf493b2d5 83c604           add esi, 0x4                
0xf493b2d8 8906             mov [esi], eax              
0xf493b2da e8d2feffff       call 0xf493b1b1             	< User.[39;49m_ffx[34;49m >
0xf493b2df c7c001000000     mov eax, 0x1                
0xf493b2e5 83c604           add esi, 0x4                
0xf493b2e8 8906             mov [esi], eax              
0xf493b2ea e837be7313       call 0x8077126              	< System.[39;49mtime[34;49m >
0xf493b2ef 8d77fc           lea esi, [edi-0x4]          
0xf493b2f2 8b7e04           mov edi, [esi+0x4]          
0xf493b2f5 81ee04000000     sub esi, 0x4                
0xf493b2fb c3               ret                         
Word : 0x0f73389e4 :: Compiled at : 0x0f493b27f
 =============================

 =============================
::> 'wdiss' is being called at namespaces/test/dev.cft 111.16 <::
User.[34;49mfactorial[39;49m <:> cfrTil compiled word
SourceCode for [34;49mfactorial[39;49m :> 
[34;49m: factorial ( REG: n | EAX: rec -- EAX ) rec 1 = { n @ 1 > } { rec @ n @ * rec store n -- } while ; [39;49m
Source code file location of [34;49mfactorial[39;49m : "namespaces/test/dev.cft" at 81.99
Compiled with : optimizeOn, inlineOn -- starting at address : 0xf493b0e2 -- code size = 33 bytes
 -----------------------------
Word : [34;49mfactorial[39;49m : disassembly :> 
0xf493b0e2 8b1e             mov ebx, [esi]              
0xf493b0e4 c7c001000000     mov eax, 0x1                
0xf493b0ea 81fb01000000     cmp ebx, 0x1                
0xf493b0f0 0f8e0a000000     jle 0xf493b100              	< User.[34;49mfactorial[39;49m+30 >
0xf493b0f6 0fafc3           imul eax, ebx               
0xf493b0f9 ffcb             dec ebx                     
0xf493b0fb e9eaffffff       jmp 0xf493b0ea              	< User.[34;49mfactorial[39;49m+8 >
0xf493b100 8906             mov [esi], eax              
0xf493b102 c3               ret                         
Word : 0x0f73389f0 :: Compiled at : 0x0f493b0e2
 =============================

 5040

Timer [ 1 ] : elapsed time = 0.055128909 seconds
 =============================
::> 'wdiss' is being called at namespaces/test/dev.cft 113.17 <::
C.[34;49mcfactorial[39;49m <:> primitive -- starting at address : 0x8075300
 -----------------------------
Word : [34;49mcfactorial[39;49m : disassembly :> 
0x08075300 55               push ebp                    
0x08075301 57               push edi                    
0x08075302 53               push ebx                    
0x08075303 8b1e             mov ebx, [esi]              
0x08075305 83fb01           cmp ebx, 0x1                
0x08075308 7f0e             jg 0x8075318                
0x0807530a c70601000000     mov dword [esi], 0x1        
0x08075310 5b               pop ebx                     
0x08075311 5f               pop edi                     
0x08075312 5d               pop ebp                     
0x08075313 c3               ret                         
Word : 0x0f73389f0 :: Compiled at : 0x008075300
 =============================

 5040

Timer [ 1 ] : elapsed time = 0.085170566 seconds
 =============================
::> 'wdiss' is being called at namespaces/test/dev.cft 114.18 <::
C.[34;49mcfactorial2[39;49m <:> primitive -- starting at address : 0x80754c0
 -----------------------------
Word : [34;49mcfactorial2[39;49m : disassembly :> 
0x080754c0 55               push ebp                    
0x080754c1 57               push edi                    
0x080754c2 53               push ebx                    
0x080754c3 8b16             mov edx, [esi]              
0x080754c5 89f3             mov ebx, esi                
0x080754c7 83fa01           cmp edx, 0x1                
0x080754ca 0f8e30010000     jle 0x8075600               	< C compiler code >
0x080754d0 8d42fb           lea eax, [edx-0x5]          
0x080754d3 8d6afe           lea ebp, [edx-0x2]          
0x080754d6 c1e802           shr eax, 0x2                
0x080754d9 8d4aff           lea ecx, [edx-0x1]          
0x080754dc 83c001           add eax, 0x1                
0x080754df 8d3c8500000000   lea edi, [eax*4]            
0x080754e6 83fd08           cmp ebp, 0x8                
0x080754e9 0f8601010000     jbe 0x80755f0               	< C compiler code >
0x080754ef 660f6eea         movd xmm5, edx              
0x080754f3 660f6f2580d90708 movdqa xmm4, [0x807d980]    
0x080754fb 31ed             xor ebp, ebp                
0x080754fd 660f70dd00       pshufd xmm3, xmm5, 0x0      
0x08075502 660f6f0560d90708 movdqa xmm0, [0x807d960]    
0x0807550a 660ffe1d70d90708 paddd xmm3, [0x807d970]     
0x08075512 660f6fd3         movdqa xmm2, xmm3           
0x08075516 660f6fcb         movdqa xmm1, xmm3           
0x0807551a 83c501           add ebp, 0x1                
0x0807551d 660ff4d0         pmuludq xmm2, xmm0          
0x08075521 660ffedc         paddd xmm3, xmm4            
0x08075525 660f73d020       psrlq xmm0, 0x20            
0x0807552a 660f73d120       psrlq xmm1, 0x20            
0x0807552f 660ff4c8         pmuludq xmm1, xmm0          
0x08075533 660f70c208       pshufd xmm0, xmm2, 0x8      
0x08075538 660f70c908       pshufd xmm1, xmm1, 0x8      
0x0807553d 660f62c1         punpckldq xmm0, xmm1        
0x08075541 39e8             cmp eax, ebp                
0x08075543 77cd             ja 0x8075512                
0x08075545 660f6fd0         movdqa xmm2, xmm0           
0x08075549 29fa             sub edx, edi                
0x0807554b 660f73da08       psrldq xmm2, 0x8            
0x08075550 660f6fca         movdqa xmm1, xmm2           
0x08075554 660f73d220       psrlq xmm2, 0x20            
0x08075559 660ff4c8         pmuludq xmm1, xmm0          
0x0807555d 660f73d020       psrlq xmm0, 0x20            
0x08075562 660ff4c2         pmuludq xmm0, xmm2          
0x08075566 660f70c908       pshufd xmm1, xmm1, 0x8      
0x0807556b 660f70c008       pshufd xmm0, xmm0, 0x8      
0x08075570 660f62c8         punpckldq xmm1, xmm0        
0x08075574 660f6fc1         movdqa xmm0, xmm1           
0x08075578 660f73d904       psrldq xmm1, 0x4            
0x0807557d 660ff4c1         pmuludq xmm0, xmm1          
0x08075581 660f7ec0         movd eax, xmm0              
0x08075585 39f9             cmp ecx, edi                
0x08075587 745e             jz 0x80755e7                
0x08075589 8d4aff           lea ecx, [edx-0x1]          
0x0807558c 0fafc2           imul eax, edx               
0x0807558f 83f901           cmp ecx, 0x1                
0x08075592 7e53             jle 0x80755e7               
0x08075594 8d7afe           lea edi, [edx-0x2]          
0x08075597 0fafc1           imul eax, ecx               
0x0807559a 83ff01           cmp edi, 0x1                
0x0807559d 7448             jz 0x80755e7                
0x0807559f 8d4afd           lea ecx, [edx-0x3]          
0x080755a2 0fafc7           imul eax, edi               
0x080755a5 83f901           cmp ecx, 0x1                
0x080755a8 743d             jz 0x80755e7                
0x080755aa 8d7afc           lea edi, [edx-0x4]          
0x080755ad 0fafc1           imul eax, ecx               
0x080755b0 83ff01           cmp edi, 0x1                
0x080755b3 7432             jz 0x80755e7                
0x080755b5 8d4afb           lea ecx, [edx-0x5]          
0x080755b8 0fafc7           imul eax, edi               
0x080755bb 83f901           cmp ecx, 0x1                
0x080755be 7427             jz 0x80755e7                
0x080755c0 8d7afa           lea edi, [edx-0x6]          
0x080755c3 0fafc1           imul eax, ecx               
0x080755c6 83ff01           cmp edi, 0x1                
0x080755c9 741c             jz 0x80755e7                
0x080755cb 8d4af9           lea ecx, [edx-0x7]          
0x080755ce 0fafc7           imul eax, edi               
0x080755d1 83f901           cmp ecx, 0x1                
0x080755d4 7411             jz 0x80755e7                
0x080755d6 0fafc1           imul eax, ecx               
0x080755d9 83ea08           sub edx, 0x8                
0x080755dc 89c1             mov ecx, eax                
0x080755de 0fafca           imul ecx, edx               
0x080755e1 83fa01           cmp edx, 0x1                
0x080755e4 0f45c1           cmovnz eax, ecx             
0x080755e7 8903             mov [ebx], eax              
0x080755e9 5b               pop ebx                     
0x080755ea 5f               pop edi                     
0x080755eb 5d               pop ebp                     
0x080755ec c3               ret                         
Word : 0x0f73389f0 :: Compiled at : 0x0080754c0
 =============================

 5040

Timer [ 1 ] : elapsed time = 0.054414130 seconds
 =============================
::> 'wdiss' is being called at namespaces/test/dev.cft 115.16 <::
C.[34;49mqexp[39;49m <:> cfrTil compiled word
SourceCode for [34;49mqexp[39;49m :> 
[34;49m: qexp dup 1 <= if{ }else{ dup -- qexp * }fi ; [39;49m
Source code file location of [34;49mqexp[39;49m : "namespaces/test/dev.cft" at 24.46
Compiled with : optimizeOn, inlineOn -- starting at address : 0xf493adab -- code size = 42 bytes
 -----------------------------
Word : [34;49mqexp[39;49m : disassembly :> 
0xf493adab 813e01000000     cmp dword [esi], 0x1        
0xf493adb1 0f8f05000000     jg 0xf493adbc               	< C.[34;49mqexp[39;49m+17 >
0xf493adb7 e918000000       jmp 0xf493add4              	< C.[34;49mqexp[39;49m+41 >
0xf493adbc 8b06             mov eax, [esi]              
0xf493adbe 83c604           add esi, 0x4                
0xf493adc1 8906             mov [esi], eax              
0xf493adc3 ff0e             dec dword [esi]             
0xf493adc5 e8e1ffffff       call 0xf493adab             	< C.[34;49mqexp[39;49m >
0xf493adca 8b06             mov eax, [esi]              
0xf493adcc 83ee04           sub esi, 0x4                
0xf493adcf 0faf06           imul eax, [esi]             
0xf493add2 8906             mov [esi], eax              
0xf493add4 c3               ret                         
Word : 0x0f73389f0 :: Compiled at : 0x0f493adab
 =============================

 5040

Timer [ 1 ] : elapsed time = 0.152572775 seconds
 =============================
::> 'wdiss' is being called at namespaces/test/dev.cft 116.13 <::
C.[34;49mbexp[39;49m <:> cfrTil compiled word
SourceCode for [34;49mbexp[39;49m :> 
[34;49m: bexp ( n ) n @ 1 > if{ n @ dup -- bexp * }else{ 1 }fi ; [39;49m
Source code file location of [34;49mbexp[39;49m : "namespaces/test/dev.cft" at 27.57
Compiled with : optimizeOn, inlineOn -- starting at address : 0xf493ae1b -- code size = 82 bytes
 -----------------------------
Word : [34;49mbexp[39;49m : disassembly :> 
0xf493ae1b 897e04           mov [esi+0x4], edi          
0xf493ae1e 8d7e04           lea edi, [esi+0x4]          
0xf493ae21 81c604000000     add esi, 0x4                
0xf493ae27 8b47fc           mov eax, [edi-0x4]          
0xf493ae2a 81f801000000     cmp eax, 0x1                
0xf493ae30 0f8e23000000     jle 0xf493ae59              	< C.[34;49mbexp[39;49m+62 >
0xf493ae36 8b47fc           mov eax, [edi-0x4]          
0xf493ae39 83c604           add esi, 0x4                
0xf493ae3c 8906             mov [esi], eax              
0xf493ae3e 83c604           add esi, 0x4                
0xf493ae41 8906             mov [esi], eax              
0xf493ae43 ff0e             dec dword [esi]             
0xf493ae45 e8d1ffffff       call 0xf493ae1b             	< C.[34;49mbexp[39;49m >
0xf493ae4a 8b06             mov eax, [esi]              
0xf493ae4c 83ee04           sub esi, 0x4                
0xf493ae4f 0faf06           imul eax, [esi]             
0xf493ae52 8906             mov [esi], eax              
0xf493ae54 e90b000000       jmp 0xf493ae64              	< C.[34;49mbexp[39;49m+73 >
0xf493ae59 c7c001000000     mov eax, 0x1                
0xf493ae5f 83c604           add esi, 0x4                
0xf493ae62 8906             mov [esi], eax              
0xf493ae64 8d77fc           lea esi, [edi-0x4]          
0xf493ae67 8b7e04           mov edi, [esi+0x4]          
0xf493ae6a 8906             mov [esi], eax              
0xf493ae6c c3               ret                         
Word : 0x0f73389f0 :: Compiled at : 0x0f493ae1b
 =============================

 5040

Timer [ 1 ] : elapsed time = 0.186237257 seconds
 =============================
::> 'wdiss' is being called at namespaces/test/dev.cft 117.12 <::
C.[34;49mbexp2[39;49m <:> cfrTil compiled word
SourceCode for [34;49mbexp2[39;49m :> 
[34;49m: bexp2 ( n ) { n @ 1 > } { n @ dup -- bexp2 * } { 1 } ifElse ; [39;49m
Source code file location of [34;49mbexp2[39;49m : "namespaces/test/dev.cft" at 28.63
Compiled with : optimizeOn, inlineOn -- starting at address : 0xf493ae75 -- code size = 82 bytes
 -----------------------------
Word : [34;49mbexp2[39;49m : disassembly :> 
0xf493ae75 897e04           mov [esi+0x4], edi          
0xf493ae78 8d7e04           lea edi, [esi+0x4]          
0xf493ae7b 81c604000000     add esi, 0x4                
0xf493ae81 8b47fc           mov eax, [edi-0x4]          
0xf493ae84 81f801000000     cmp eax, 0x1                
0xf493ae8a 0f8e23000000     jle 0xf493aeb3              	< C.[34;49mbexp2[39;49m+62 >
0xf493ae90 8b47fc           mov eax, [edi-0x4]          
0xf493ae93 83c604           add esi, 0x4                
0xf493ae96 8906             mov [esi], eax              
0xf493ae98 83c604           add esi, 0x4                
0xf493ae9b 8906             mov [esi], eax              
0xf493ae9d ff0e             dec dword [esi]             
0xf493ae9f e8d1ffffff       call 0xf493ae75             	< C.[34;49mbexp2[39;49m >
0xf493aea4 8b06             mov eax, [esi]              
0xf493aea6 83ee04           sub esi, 0x4                
0xf493aea9 0faf06           imul eax, [esi]             
0xf493aeac 8906             mov [esi], eax              
0xf493aeae e90b000000       jmp 0xf493aebe              	< C.[34;49mbexp2[39;49m+73 >
0xf493aeb3 c7c001000000     mov eax, 0x1                
0xf493aeb9 83c604           add esi, 0x4                
0xf493aebc 8906             mov [esi], eax              
0xf493aebe 8d77fc           lea esi, [edi-0x4]          
0xf493aec1 8b7e04           mov edi, [esi+0x4]          
0xf493aec4 8906             mov [esi], eax              
0xf493aec6 c3               ret                         
Word : 0x0f73389f0 :: Compiled at : 0x0f493ae75
 =============================

 5040

Timer [ 1 ] : elapsed time = 0.184599524 seconds
 =============================
::> 'wdiss' is being called at namespaces/test/dev.cft 118.16 <::
C.[34;49mfactorial[39;49m <:> cfrTil compiled word
SourceCode for [34;49mfactorial[39;49m :> 
[34;49m: factorial ( REG: n | EAX: rec -- EAX ) rec 1 = { n @ 1 > } { rec @ n @ * rec store n -- } while ; [39;49m
Source code file location of [34;49mfactorial[39;49m : "namespaces/test/dev0.cft" at 47.99
Compiled with : optimizeOn, inlineOn -- starting at address : 0xf4939f77 -- code size = 33 bytes
 -----------------------------
Word : [34;49mfactorial[39;49m : disassembly :> 
0xf4939f77 8b1e             mov ebx, [esi]              
0xf4939f79 c7c001000000     mov eax, 0x1                
0xf4939f7f 81fb01000000     cmp ebx, 0x1                
0xf4939f85 0f8e0a000000     jle 0xf4939f95              	< C.[34;49mfactorial[39;49m+30 >
0xf4939f8b 0fafc3           imul eax, ebx               
0xf4939f8e ffcb             dec ebx                     
0xf4939f90 e9eaffffff       jmp 0xf4939f7f              	< C.[34;49mfactorial[39;49m+8 >
0xf4939f95 8906             mov [esi], eax              
0xf4939f97 c3               ret                         
Word : 0x0f73389f0 :: Compiled at : 0x0f4939f77
 =============================

 5040

Timer [ 1 ] : elapsed time = 0.058614638 seconds
 =============================
::> 'wdiss' is being called at namespaces/test/dev.cft 119.13 <::
C.[34;49mqexp[39;49m <:> cfrTil compiled word
SourceCode for [34;49mqexp[39;49m :> 
[34;49m: qexp dup 1 <= if{ }else{ dup -- qexp * }fi ; [39;49m
Source code file location of [34;49mqexp[39;49m : "namespaces/test/dev.cft" at 24.46
Compiled with : optimizeOn, inlineOn -- starting at address : 0xf493adab -- code size = 42 bytes
 -----------------------------
Word : [34;49mqexp[39;49m : disassembly :> 
0xf493adab 813e01000000     cmp dword [esi], 0x1        
0xf493adb1 0f8f05000000     jg 0xf493adbc               	< C.[34;49mqexp[39;49m+17 >
0xf493adb7 e918000000       jmp 0xf493add4              	< C.[34;49mqexp[39;49m+41 >
0xf493adbc 8b06             mov eax, [esi]              
0xf493adbe 83c604           add esi, 0x4                
0xf493adc1 8906             mov [esi], eax              
0xf493adc3 ff0e             dec dword [esi]             
0xf493adc5 e8e1ffffff       call 0xf493adab             	< C.[34;49mqexp[39;49m >
0xf493adca 8b06             mov eax, [esi]              
0xf493adcc 83ee04           sub esi, 0x4                
0xf493adcf 0faf06           imul eax, [esi]             
0xf493add2 8906             mov [esi], eax              
0xf493add4 c3               ret                         
Word : 0x0f73389f0 :: Compiled at : 0x0f493adab
 =============================

 5040

Timer [ 1 ] : elapsed time = 0.153759931 seconds
 =============================
::> 'wdiss' is being called at namespaces/test/dev.cft 120.14 <::
C.[34;49mqexp2[39;49m <:> cfrTil compiled word
SourceCode for [34;49mqexp2[39;49m :> 
[34;49m: qexp2 dup 1 <= ?< >:< dup -- qexp2 * >? ; [39;49m
Source code file location of [34;49mqexp2[39;49m : "namespaces/test/dev.cft" at 25.43
Compiled with : optimizeOn, inlineOn -- starting at address : 0xf493ade9 -- code size = 42 bytes
 -----------------------------
Word : [34;49mqexp2[39;49m : disassembly :> 
0xf493ade9 813e01000000     cmp dword [esi], 0x1        
0xf493adef 0f8f05000000     jg 0xf493adfa               	< C.[34;49mqexp2[39;49m+17 >
0xf493adf5 e918000000       jmp 0xf493ae12              	< C.[34;49mqexp2[39;49m+41 >
0xf493adfa 8b06             mov eax, [esi]              
0xf493adfc 83c604           add esi, 0x4                
0xf493adff 8906             mov [esi], eax              
0xf493ae01 ff0e             dec dword [esi]             
0xf493ae03 e8e1ffffff       call 0xf493ade9             	< C.[34;49mqexp2[39;49m >
0xf493ae08 8b06             mov eax, [esi]              
0xf493ae0a 83ee04           sub esi, 0x4                
0xf493ae0d 0faf06           imul eax, [esi]             
0xf493ae10 8906             mov [esi], eax              
0xf493ae12 c3               ret                         
Word : 0x0f73389f0 :: Compiled at : 0x0f493ade9
 =============================

 5040

Timer [ 1 ] : elapsed time = 0.153196052 seconds
 =============================
::> 'wdiss' is being called at namespaces/test/dev.cft 121.11 <::
C.[34;49mbexp[39;49m <:> cfrTil compiled word
SourceCode for [34;49mbexp[39;49m :> 
[34;49m: bexp ( n ) n @ 1 > if{ n @ dup -- bexp * }else{ 1 }fi ; [39;49m
Source code file location of [34;49mbexp[39;49m : "namespaces/test/dev.cft" at 27.57
Compiled with : optimizeOn, inlineOn -- starting at address : 0xf493ae1b -- code size = 82 bytes
 -----------------------------
Word : [34;49mbexp[39;49m : disassembly :> 
0xf493ae1b 897e04           mov [esi+0x4], edi          
0xf493ae1e 8d7e04           lea edi, [esi+0x4]          
0xf493ae21 81c604000000     add esi, 0x4                
0xf493ae27 8b47fc           mov eax, [edi-0x4]          
0xf493ae2a 81f801000000     cmp eax, 0x1                
0xf493ae30 0f8e23000000     jle 0xf493ae59              	< C.[34;49mbexp[39;49m+62 >
0xf493ae36 8b47fc           mov eax, [edi-0x4]          
0xf493ae39 83c604           add esi, 0x4                
0xf493ae3c 8906             mov [esi], eax              
0xf493ae3e 83c604           add esi, 0x4                
0xf493ae41 8906             mov [esi], eax              
0xf493ae43 ff0e             dec dword [esi]             
0xf493ae45 e8d1ffffff       call 0xf493ae1b             	< C.[34;49mbexp[39;49m >
0xf493ae4a 8b06             mov eax, [esi]              
0xf493ae4c 83ee04           sub esi, 0x4                
0xf493ae4f 0faf06           imul eax, [esi]             
0xf493ae52 8906             mov [esi], eax              
0xf493ae54 e90b000000       jmp 0xf493ae64              	< C.[34;49mbexp[39;49m+73 >
0xf493ae59 c7c001000000     mov eax, 0x1                
0xf493ae5f 83c604           add esi, 0x4                
0xf493ae62 8906             mov [esi], eax              
0xf493ae64 8d77fc           lea esi, [edi-0x4]          
0xf493ae67 8b7e04           mov edi, [esi+0x4]          
0xf493ae6a 8906             mov [esi], eax              
0xf493ae6c c3               ret                         
Word : 0x0f73389f0 :: Compiled at : 0x0f493ae1b
 =============================

 5040

Timer [ 1 ] : elapsed time = 0.189542431 seconds
 =============================
::> 'wdiss' is being called at namespaces/test/dev.cft 122.12 <::
C.[34;49mbexp2[39;49m <:> cfrTil compiled word
SourceCode for [34;49mbexp2[39;49m :> 
[34;49m: bexp2 ( n ) { n @ 1 > } { n @ dup -- bexp2 * } { 1 } ifElse ; [39;49m
Source code file location of [34;49mbexp2[39;49m : "namespaces/test/dev.cft" at 28.63
Compiled with : optimizeOn, inlineOn -- starting at address : 0xf493ae75 -- code size = 82 bytes
 -----------------------------
Word : [34;49mbexp2[39;49m : disassembly :> 
0xf493ae75 897e04           mov [esi+0x4], edi          
0xf493ae78 8d7e04           lea edi, [esi+0x4]          
0xf493ae7b 81c604000000     add esi, 0x4                
0xf493ae81 8b47fc           mov eax, [edi-0x4]          
0xf493ae84 81f801000000     cmp eax, 0x1                
0xf493ae8a 0f8e23000000     jle 0xf493aeb3              	< C.[34;49mbexp2[39;49m+62 >
0xf493ae90 8b47fc           mov eax, [edi-0x4]          
0xf493ae93 83c604           add esi, 0x4                
0xf493ae96 8906             mov [esi], eax              
0xf493ae98 83c604           add esi, 0x4                
0xf493ae9b 8906             mov [esi], eax              
0xf493ae9d ff0e             dec dword [esi]             
0xf493ae9f e8d1ffffff       call 0xf493ae75             	< C.[34;49mbexp2[39;49m >
0xf493aea4 8b06             mov eax, [esi]              
0xf493aea6 83ee04           sub esi, 0x4                
0xf493aea9 0faf06           imul eax, [esi]             
0xf493aeac 8906             mov [esi], eax              
0xf493aeae e90b000000       jmp 0xf493aebe              	< C.[34;49mbexp2[39;49m+73 >
0xf493aeb3 c7c001000000     mov eax, 0x1                
0xf493aeb9 83c604           add esi, 0x4                
0xf493aebc 8906             mov [esi], eax              
0xf493aebe 8d77fc           lea esi, [edi-0x4]          
0xf493aec1 8b7e04           mov edi, [esi+0x4]          
0xf493aec4 8906             mov [esi], eax              
0xf493aec6 c3               ret                         
Word : 0x0f73389f0 :: Compiled at : 0x0f493ae75
 =============================

 5040

Timer [ 1 ] : elapsed time = 0.184864340 seconds
 =============================
::> 'wdiss' is being called at namespaces/test/dev.cft 123.12 <::
C.[34;49mbexp3[39;49m <:> cfrTil compiled word
SourceCode for [34;49mbexp3[39;49m :> 
[34;49m: bexp3 ( n ) { n @ 1 > } { n @ n @ -- bexp3 * } { 1 } ifElse ; [39;49m
Source code file location of [34;49mbexp3[39;49m : "namespaces/test/dev.cft" at 29.63
Compiled with : optimizeOn, inlineOn -- starting at address : 0xf493aecf -- code size = 85 bytes
 -----------------------------
Word : [34;49mbexp3[39;49m : disassembly :> 
0xf493aecf 897e04           mov [esi+0x4], edi          
0xf493aed2 8d7e04           lea edi, [esi+0x4]          
0xf493aed5 81c604000000     add esi, 0x4                
0xf493aedb 8b47fc           mov eax, [edi-0x4]          
0xf493aede 81f801000000     cmp eax, 0x1                
0xf493aee4 0f8e26000000     jle 0xf493af10              	< C.[34;49mbexp3[39;49m+65 >
0xf493aeea 8b47fc           mov eax, [edi-0x4]          
0xf493aeed 83c604           add esi, 0x4                
0xf493aef0 8906             mov [esi], eax              
0xf493aef2 8b47fc           mov eax, [edi-0x4]          
0xf493aef5 83c604           add esi, 0x4                
0xf493aef8 8906             mov [esi], eax              
0xf493aefa ff0e             dec dword [esi]             
0xf493aefc e8ceffffff       call 0xf493aecf             	< C.[34;49mbexp3[39;49m >
0xf493af01 8b06             mov eax, [esi]              
0xf493af03 83ee04           sub esi, 0x4                
0xf493af06 0faf06           imul eax, [esi]             
0xf493af09 8906             mov [esi], eax              
0xf493af0b e90b000000       jmp 0xf493af1b              	< C.[34;49mbexp3[39;49m+76 >
0xf493af10 c7c001000000     mov eax, 0x1                
0xf493af16 83c604           add esi, 0x4                
0xf493af19 8906             mov [esi], eax              
0xf493af1b 8d77fc           lea esi, [edi-0x4]          
0xf493af1e 8b7e04           mov edi, [esi+0x4]          
0xf493af21 8906             mov [esi], eax              
0xf493af23 c3               ret                         
Word : 0x0f73389f0 :: Compiled at : 0x0f493aecf
 =============================

 5040

Timer [ 1 ] : elapsed time = 0.188406707 seconds
 =============================
::> 'wdiss' is being called at namespaces/test/dev.cft 124.10 <::
C.[34;49mfac[39;49m <:> cfrTil compiled word
SourceCode for [34;49mfac[39;49m :> 
[34;49m: fac ( n | rec1 -- TOS ) rec1 1 = { n @ 1 > } { n @ rec1 @ * rec1 store n -- } while rec1 @ ; [39;49m
Source code file location of [34;49mfac[39;49m : "namespaces/test/dev.cft" at 75.1
Compiled with : optimizeOn, inlineOn -- starting at address : 0xf493afe1 -- code size = 75 bytes
 -----------------------------
Word : [34;49mfac[39;49m : disassembly :> 
0xf493afe1 897e04           mov [esi+0x4], edi          
0xf493afe4 8d7e04           lea edi, [esi+0x4]          
0xf493afe7 81c608000000     add esi, 0x8                
0xf493afed 8d4704           lea eax, [edi+0x4]          
0xf493aff0 c70001000000     mov dword [eax], 0x1        
0xf493aff6 8b47fc           mov eax, [edi-0x4]          
0xf493aff9 81f801000000     cmp eax, 0x1                
0xf493afff 0f8e16000000     jle 0xf493b01b              	< C.[34;49mfac[39;49m+58 >
0xf493b005 8b47fc           mov eax, [edi-0x4]          
0xf493b008 8b4f04           mov ecx, [edi+0x4]          
0xf493b00b 0fafc1           imul eax, ecx               
0xf493b00e 8d4f04           lea ecx, [edi+0x4]          
0xf493b011 8901             mov [ecx], eax              
0xf493b013 ff4ffc           dec dword [edi-0x4]         
0xf493b016 e9dbffffff       jmp 0xf493aff6              	< C.[34;49mfac[39;49m+21 >
0xf493b01b 8b4704           mov eax, [edi+0x4]          
0xf493b01e 83c604           add esi, 0x4                
0xf493b021 8906             mov [esi], eax              
0xf493b023 8d77fc           lea esi, [edi-0x4]          
0xf493b026 8b7e04           mov edi, [esi+0x4]          
0xf493b029 8906             mov [esi], eax              
0xf493b02b c3               ret                         
Word : 0x0f73389f0 :: Compiled at : 0x0f493afe1
 =============================

 5040

Timer [ 1 ] : elapsed time = 0.088573733 seconds
 =============================
::> 'wdiss' is being called at namespaces/test/dev.cft 127.16 <::
User.[34;49mfactorial[39;49m <:> cfrTil compiled word
SourceCode for [34;49mfactorial[39;49m :> 
[34;49m: factorial ( REG: n | EAX: rec -- EAX ) rec 1 = { n @ 1 > } { rec @ n @ * rec store n -- } while ; [39;49m
Source code file location of [34;49mfactorial[39;49m : "namespaces/test/dev.cft" at 81.99
Compiled with : optimizeOn, inlineOn -- starting at address : 0xf493b0e2 -- code size = 33 bytes
 -----------------------------
Word : [34;49mfactorial[39;49m : disassembly :> 
0xf493b0e2 8b1e             mov ebx, [esi]              
0xf493b0e4 c7c001000000     mov eax, 0x1                
0xf493b0ea 81fb01000000     cmp ebx, 0x1                
0xf493b0f0 0f8e0a000000     jle 0xf493b100              	< User.[34;49mfactorial[39;49m+30 >
0xf493b0f6 0fafc3           imul eax, ebx               
0xf493b0f9 ffcb             dec ebx                     
0xf493b0fb e9eaffffff       jmp 0xf493b0ea              	< User.[34;49mfactorial[39;49m+8 >
0xf493b100 8906             mov [esi], eax              
0xf493b102 c3               ret                         
Word : 0x0f73389f0 :: Compiled at : 0x0f493b0e2
 =============================

 5040

Timer [ 1 ] : elapsed time = 0.048743737 seconds
 =============================
::> 'wdiss' is being called at namespaces/test/dev.cft 128.18 <::
C.[34;49mcfactorial3[39;49m <:> primitive -- starting at address : 0x8075610
 -----------------------------
Word : [34;49mcfactorial3[39;49m : disassembly :> 
0x08075610 55               push ebp                    
0x08075611 57               push edi                    
0x08075612 53               push ebx                    
0x08075613 8b16             mov edx, [esi]              
0x08075615 89f3             mov ebx, esi                
0x08075617 83fa01           cmp edx, 0x1                
0x0807561a 0f8e30010000     jle 0x8075750               	< C compiler code >
0x08075620 8d42fb           lea eax, [edx-0x5]          
0x08075623 8d6afe           lea ebp, [edx-0x2]          
0x08075626 c1e802           shr eax, 0x2                
0x08075629 8d4aff           lea ecx, [edx-0x1]          
0x0807562c 83c001           add eax, 0x1                
0x0807562f 8d3c8500000000   lea edi, [eax*4]            
0x08075636 83fd08           cmp ebp, 0x8                
0x08075639 0f8601010000     jbe 0x8075740               	< C compiler code >
0x0807563f 660f6eea         movd xmm5, edx              
0x08075643 660f6f2580d90708 movdqa xmm4, [0x807d980]    
0x0807564b 31ed             xor ebp, ebp                
0x0807564d 660f70dd00       pshufd xmm3, xmm5, 0x0      
0x08075652 660f6f0560d90708 movdqa xmm0, [0x807d960]    
0x0807565a 660ffe1d70d90708 paddd xmm3, [0x807d970]     
0x08075662 660f6fd3         movdqa xmm2, xmm3           
0x08075666 660f6fcb         movdqa xmm1, xmm3           
0x0807566a 83c501           add ebp, 0x1                
0x0807566d 660ff4d0         pmuludq xmm2, xmm0          
0x08075671 660ffedc         paddd xmm3, xmm4            
0x08075675 660f73d020       psrlq xmm0, 0x20            
0x0807567a 660f73d120       psrlq xmm1, 0x20            
0x0807567f 660ff4c8         pmuludq xmm1, xmm0          
0x08075683 660f70c208       pshufd xmm0, xmm2, 0x8      
0x08075688 660f70c908       pshufd xmm1, xmm1, 0x8      
0x0807568d 660f62c1         punpckldq xmm0, xmm1        
0x08075691 39e8             cmp eax, ebp                
0x08075693 77cd             ja 0x8075662                
0x08075695 660f6fd0         movdqa xmm2, xmm0           
0x08075699 29fa             sub edx, edi                
0x0807569b 660f73da08       psrldq xmm2, 0x8            
0x080756a0 660f6fca         movdqa xmm1, xmm2           
0x080756a4 660f73d220       psrlq xmm2, 0x20            
0x080756a9 660ff4c8         pmuludq xmm1, xmm0          
0x080756ad 660f73d020       psrlq xmm0, 0x20            
0x080756b2 660ff4c2         pmuludq xmm0, xmm2          
0x080756b6 660f70c908       pshufd xmm1, xmm1, 0x8      
0x080756bb 660f70c008       pshufd xmm0, xmm0, 0x8      
0x080756c0 660f62c8         punpckldq xmm1, xmm0        
0x080756c4 660f6fc1         movdqa xmm0, xmm1           
0x080756c8 660f73d904       psrldq xmm1, 0x4            
0x080756cd 660ff4c1         pmuludq xmm0, xmm1          
0x080756d1 660f7ec0         movd eax, xmm0              
0x080756d5 39f9             cmp ecx, edi                
0x080756d7 745e             jz 0x8075737                
0x080756d9 8d4aff           lea ecx, [edx-0x1]          
0x080756dc 0fafc2           imul eax, edx               
0x080756df 83f901           cmp ecx, 0x1                
0x080756e2 7e53             jle 0x8075737               
0x080756e4 8d7afe           lea edi, [edx-0x2]          
0x080756e7 0fafc1           imul eax, ecx               
0x080756ea 83ff01           cmp edi, 0x1                
0x080756ed 7448             jz 0x8075737                
0x080756ef 8d4afd           lea ecx, [edx-0x3]          
0x080756f2 0fafc7           imul eax, edi               
0x080756f5 83f901           cmp ecx, 0x1                
0x080756f8 743d             jz 0x8075737                
0x080756fa 8d7afc           lea edi, [edx-0x4]          
0x080756fd 0fafc1           imul eax, ecx               
0x08075700 83ff01           cmp edi, 0x1                
0x08075703 7432             jz 0x8075737                
0x08075705 8d4afb           lea ecx, [edx-0x5]          
0x08075708 0fafc7           imul eax, edi               
0x0807570b 83f901           cmp ecx, 0x1                
0x0807570e 7427             jz 0x8075737                
0x08075710 8d7afa           lea edi, [edx-0x6]          
0x08075713 0fafc1           imul eax, ecx               
0x08075716 83ff01           cmp edi, 0x1                
0x08075719 741c             jz 0x8075737                
0x0807571b 8d4af9           lea ecx, [edx-0x7]          
0x0807571e 0fafc7           imul eax, edi               
0x08075721 83f901           cmp ecx, 0x1                
0x08075724 7411             jz 0x8075737                
0x08075726 0fafc1           imul eax, ecx               
0x08075729 83ea08           sub edx, 0x8                
0x0807572c 89c1             mov ecx, eax                
0x0807572e 0fafca           imul ecx, edx               
0x08075731 83fa01           cmp edx, 0x1                
0x08075734 0f45c1           cmovnz eax, ecx             
0x08075737 8903             mov [ebx], eax              
0x08075739 5b               pop ebx                     
0x0807573a 5f               pop edi                     
0x0807573b 5d               pop ebp                     
0x0807573c c3               ret                         
Word : 0x0f73389f0 :: Compiled at : 0x008075610
 =============================

 5040

Timer [ 1 ] : elapsed time = 0.054685045 seconds
 =============================
::> 'wdiss' is being called at namespaces/test/dev.cft 129.17 <::
C.[34;49mcfactorial[39;49m <:> primitive -- starting at address : 0x8075300
 -----------------------------
Word : [34;49mcfactorial[39;49m : disassembly :> 
0x08075300 55               push ebp                    
0x08075301 57               push edi                    
0x08075302 53               push ebx                    
0x08075303 8b1e             mov ebx, [esi]              
0x08075305 83fb01           cmp ebx, 0x1                
0x08075308 7f0e             jg 0x8075318                
0x0807530a c70601000000     mov dword [esi], 0x1        
0x08075310 5b               pop ebx                     
0x08075311 5f               pop edi                     
0x08075312 5d               pop ebp                     
0x08075313 c3               ret                         
Word : 0x0f73389f0 :: Compiled at : 0x008075300
 =============================

 5040

Timer [ 1 ] : elapsed time = 0.081576982 seconds
 =============================
::> 'wdiss' is being called at namespaces/test/dev.cft 130.18 <::
C.[34;49mcfactorial2[39;49m <:> primitive -- starting at address : 0x80754c0
 -----------------------------
Word : [34;49mcfactorial2[39;49m : disassembly :> 
0x080754c0 55               push ebp                    
0x080754c1 57               push edi                    
0x080754c2 53               push ebx                    
0x080754c3 8b16             mov edx, [esi]              
0x080754c5 89f3             mov ebx, esi                
0x080754c7 83fa01           cmp edx, 0x1                
0x080754ca 0f8e30010000     jle 0x8075600               	< C compiler code >
0x080754d0 8d42fb           lea eax, [edx-0x5]          
0x080754d3 8d6afe           lea ebp, [edx-0x2]          
0x080754d6 c1e802           shr eax, 0x2                
0x080754d9 8d4aff           lea ecx, [edx-0x1]          
0x080754dc 83c001           add eax, 0x1                
0x080754df 8d3c8500000000   lea edi, [eax*4]            
0x080754e6 83fd08           cmp ebp, 0x8                
0x080754e9 0f8601010000     jbe 0x80755f0               	< C compiler code >
0x080754ef 660f6eea         movd xmm5, edx              
0x080754f3 660f6f2580d90708 movdqa xmm4, [0x807d980]    
0x080754fb 31ed             xor ebp, ebp                
0x080754fd 660f70dd00       pshufd xmm3, xmm5, 0x0      
0x08075502 660f6f0560d90708 movdqa xmm0, [0x807d960]    
0x0807550a 660ffe1d70d90708 paddd xmm3, [0x807d970]     
0x08075512 660f6fd3         movdqa xmm2, xmm3           
0x08075516 660f6fcb         movdqa xmm1, xmm3           
0x0807551a 83c501           add ebp, 0x1                
0x0807551d 660ff4d0         pmuludq xmm2, xmm0          
0x08075521 660ffedc         paddd xmm3, xmm4            
0x08075525 660f73d020       psrlq xmm0, 0x20            
0x0807552a 660f73d120       psrlq xmm1, 0x20            
0x0807552f 660ff4c8         pmuludq xmm1, xmm0          
0x08075533 660f70c208       pshufd xmm0, xmm2, 0x8      
0x08075538 660f70c908       pshufd xmm1, xmm1, 0x8      
0x0807553d 660f62c1         punpckldq xmm0, xmm1        
0x08075541 39e8             cmp eax, ebp                
0x08075543 77cd             ja 0x8075512                
0x08075545 660f6fd0         movdqa xmm2, xmm0           
0x08075549 29fa             sub edx, edi                
0x0807554b 660f73da08       psrldq xmm2, 0x8            
0x08075550 660f6fca         movdqa xmm1, xmm2           
0x08075554 660f73d220       psrlq xmm2, 0x20            
0x08075559 660ff4c8         pmuludq xmm1, xmm0          
0x0807555d 660f73d020       psrlq xmm0, 0x20            
0x08075562 660ff4c2         pmuludq xmm0, xmm2          
0x08075566 660f70c908       pshufd xmm1, xmm1, 0x8      
0x0807556b 660f70c008       pshufd xmm0, xmm0, 0x8      
0x08075570 660f62c8         punpckldq xmm1, xmm0        
0x08075574 660f6fc1         movdqa xmm0, xmm1           
0x08075578 660f73d904       psrldq xmm1, 0x4            
0x0807557d 660ff4c1         pmuludq xmm0, xmm1          
0x08075581 660f7ec0         movd eax, xmm0              
0x08075585 39f9             cmp ecx, edi                
0x08075587 745e             jz 0x80755e7                
0x08075589 8d4aff           lea ecx, [edx-0x1]          
0x0807558c 0fafc2           imul eax, edx               
0x0807558f 83f901           cmp ecx, 0x1                
0x08075592 7e53             jle 0x80755e7               
0x08075594 8d7afe           lea edi, [edx-0x2]          
0x08075597 0fafc1           imul eax, ecx               
0x0807559a 83ff01           cmp edi, 0x1                
0x0807559d 7448             jz 0x80755e7                
0x0807559f 8d4afd           lea ecx, [edx-0x3]          
0x080755a2 0fafc7           imul eax, edi               
0x080755a5 83f901           cmp ecx, 0x1                
0x080755a8 743d             jz 0x80755e7                
0x080755aa 8d7afc           lea edi, [edx-0x4]          
0x080755ad 0fafc1           imul eax, ecx               
0x080755b0 83ff01           cmp edi, 0x1                
0x080755b3 7432             jz 0x80755e7                
0x080755b5 8d4afb           lea ecx, [edx-0x5]          
0x080755b8 0fafc7           imul eax, edi               
0x080755bb 83f901           cmp ecx, 0x1                
0x080755be 7427             jz 0x80755e7                
0x080755c0 8d7afa           lea edi, [edx-0x6]          
0x080755c3 0fafc1           imul eax, ecx               
0x080755c6 83ff01           cmp edi, 0x1                
0x080755c9 741c             jz 0x80755e7                
0x080755cb 8d4af9           lea ecx, [edx-0x7]          
0x080755ce 0fafc7           imul eax, edi               
0x080755d1 83f901           cmp ecx, 0x1                
0x080755d4 7411             jz 0x80755e7                
0x080755d6 0fafc1           imul eax, ecx               
0x080755d9 83ea08           sub edx, 0x8                
0x080755dc 89c1             mov ecx, eax                
0x080755de 0fafca           imul ecx, edx               
0x080755e1 83fa01           cmp edx, 0x1                
0x080755e4 0f45c1           cmovnz eax, ecx             
0x080755e7 8903             mov [ebx], eax              
0x080755e9 5b               pop ebx                     
0x080755ea 5f               pop edi                     
0x080755eb 5d               pop ebp                     
0x080755ec c3               ret                         
Word : 0x0f73389f0 :: Compiled at : 0x0080754c0
 =============================

 5040

Timer [ 1 ] : elapsed time = 0.054928769 seconds
 =============================
::> 'wdiss' is being called at namespaces/test/dev.cft 131.18 <::
C.[34;49mcfactorial3[39;49m <:> primitive -- starting at address : 0x8075610
 -----------------------------
Word : [34;49mcfactorial3[39;49m : disassembly :> 
0x08075610 55               push ebp                    
0x08075611 57               push edi                    
0x08075612 53               push ebx                    
0x08075613 8b16             mov edx, [esi]              
0x08075615 89f3             mov ebx, esi                
0x08075617 83fa01           cmp edx, 0x1                
0x0807561a 0f8e30010000     jle 0x8075750               	< C compiler code >
0x08075620 8d42fb           lea eax, [edx-0x5]          
0x08075623 8d6afe           lea ebp, [edx-0x2]          
0x08075626 c1e802           shr eax, 0x2                
0x08075629 8d4aff           lea ecx, [edx-0x1]          
0x0807562c 83c001           add eax, 0x1                
0x0807562f 8d3c8500000000   lea edi, [eax*4]            
0x08075636 83fd08           cmp ebp, 0x8                
0x08075639 0f8601010000     jbe 0x8075740               	< C compiler code >
0x0807563f 660f6eea         movd xmm5, edx              
0x08075643 660f6f2580d90708 movdqa xmm4, [0x807d980]    
0x0807564b 31ed             xor ebp, ebp                
0x0807564d 660f70dd00       pshufd xmm3, xmm5, 0x0      
0x08075652 660f6f0560d90708 movdqa xmm0, [0x807d960]    
0x0807565a 660ffe1d70d90708 paddd xmm3, [0x807d970]     
0x08075662 660f6fd3         movdqa xmm2, xmm3           
0x08075666 660f6fcb         movdqa xmm1, xmm3           
0x0807566a 83c501           add ebp, 0x1                
0x0807566d 660ff4d0         pmuludq xmm2, xmm0          
0x08075671 660ffedc         paddd xmm3, xmm4            
0x08075675 660f73d020       psrlq xmm0, 0x20            
0x0807567a 660f73d120       psrlq xmm1, 0x20            
0x0807567f 660ff4c8         pmuludq xmm1, xmm0          
0x08075683 660f70c208       pshufd xmm0, xmm2, 0x8      
0x08075688 660f70c908       pshufd xmm1, xmm1, 0x8      
0x0807568d 660f62c1         punpckldq xmm0, xmm1        
0x08075691 39e8             cmp eax, ebp                
0x08075693 77cd             ja 0x8075662                
0x08075695 660f6fd0         movdqa xmm2, xmm0           
0x08075699 29fa             sub edx, edi                
0x0807569b 660f73da08       psrldq xmm2, 0x8            
0x080756a0 660f6fca         movdqa xmm1, xmm2           
0x080756a4 660f73d220       psrlq xmm2, 0x20            
0x080756a9 660ff4c8         pmuludq xmm1, xmm0          
0x080756ad 660f73d020       psrlq xmm0, 0x20            
0x080756b2 660ff4c2         pmuludq xmm0, xmm2          
0x080756b6 660f70c908       pshufd xmm1, xmm1, 0x8      
0x080756bb 660f70c008       pshufd xmm0, xmm0, 0x8      
0x080756c0 660f62c8         punpckldq xmm1, xmm0        
0x080756c4 660f6fc1         movdqa xmm0, xmm1           
0x080756c8 660f73d904       psrldq xmm1, 0x4            
0x080756cd 660ff4c1         pmuludq xmm0, xmm1          
0x080756d1 660f7ec0         movd eax, xmm0              
0x080756d5 39f9             cmp ecx, edi                
0x080756d7 745e             jz 0x8075737                
0x080756d9 8d4aff           lea ecx, [edx-0x1]          
0x080756dc 0fafc2           imul eax, edx               
0x080756df 83f901           cmp ecx, 0x1                
0x080756e2 7e53             jle 0x8075737               
0x080756e4 8d7afe           lea edi, [edx-0x2]          
0x080756e7 0fafc1           imul eax, ecx               
0x080756ea 83ff01           cmp edi, 0x1                
0x080756ed 7448             jz 0x8075737                
0x080756ef 8d4afd           lea ecx, [edx-0x3]          
0x080756f2 0fafc7           imul eax, edi               
0x080756f5 83f901           cmp ecx, 0x1                
0x080756f8 743d             jz 0x8075737                
0x080756fa 8d7afc           lea edi, [edx-0x4]          
0x080756fd 0fafc1           imul eax, ecx               
0x08075700 83ff01           cmp edi, 0x1                
0x08075703 7432             jz 0x8075737                
0x08075705 8d4afb           lea ecx, [edx-0x5]          
0x08075708 0fafc7           imul eax, edi               
0x0807570b 83f901           cmp ecx, 0x1                
0x0807570e 7427             jz 0x8075737                
0x08075710 8d7afa           lea edi, [edx-0x6]          
0x08075713 0fafc1           imul eax, ecx               
0x08075716 83ff01           cmp edi, 0x1                
0x08075719 741c             jz 0x8075737                
0x0807571b 8d4af9           lea ecx, [edx-0x7]          
0x0807571e 0fafc7           imul eax, edi               
0x08075721 83f901           cmp ecx, 0x1                
0x08075724 7411             jz 0x8075737                
0x08075726 0fafc1           imul eax, ecx               
0x08075729 83ea08           sub edx, 0x8                
0x0807572c 89c1             mov ecx, eax                
0x0807572e 0fafca           imul ecx, edx               
0x08075731 83fa01           cmp edx, 0x1                
0x08075734 0f45c1           cmovnz eax, ecx             
0x08075737 8903             mov [ebx], eax              
0x08075739 5b               pop ebx                     
0x0807573a 5f               pop edi                     
0x0807573b 5d               pop ebp                     
0x0807573c c3               ret                         
Word : 0x0f73389f0 :: Compiled at : 0x008075610
 =============================

 5040

Timer [ 1 ] : elapsed time = 0.054789951 seconds
Using Namespaces :> User Root C Compiler Int Logic Shell Bits Experimental _CObj Combinators Interpreter System Lexer Class Control Asm Stack IA32 Compiling DObject o1 o2 o3 x DLLNodeAlloc DLLNode Ar9 Ar1 Ar2 Ar3 DLLNodeAlloc4 DLListClone DLList byte Integer int16 Pointer int64 int32 OpenVmTil Debug Word Io Namespace quad int void char long StartupMacros Reserved Macro PreProcessor Colors File String Locals Forth C_Typedef BigInt DO_Experimental BigFloat Lisp C_Combinators Infix C_Syntax 

 =============================
::> 'wdiss' is being called at namespaces/test/dev.cft 133.16 <::
User.[34;49mfactorial[39;49m <:> cfrTil compiled word
SourceCode for [34;49mfactorial[39;49m :> 
[34;49m: factorial ( REG: n | EAX: rec -- EAX ) rec 1 = { n @ 1 > } { rec @ n @ * rec store n -- } while ; [39;49m
Source code file location of [34;49mfactorial[39;49m : "namespaces/test/dev.cft" at 81.99
Compiled with : optimizeOn, inlineOn -- starting at address : 0xf493b0e2 -- code size = 33 bytes
 -----------------------------
Word : [34;49mfactorial[39;49m : disassembly :> 
0xf493b0e2 8b1e             mov ebx, [esi]              
0xf493b0e4 c7c001000000     mov eax, 0x1                
0xf493b0ea 81fb01000000     cmp ebx, 0x1                
0xf493b0f0 0f8e0a000000     jle 0xf493b100              	< User.[34;49mfactorial[39;49m+30 >
0xf493b0f6 0fafc3           imul eax, ebx               
0xf493b0f9 ffcb             dec ebx                     
0xf493b0fb e9eaffffff       jmp 0xf493b0ea              	< User.[34;49mfactorial[39;49m+8 >
0xf493b100 8906             mov [esi], eax              
0xf493b102 c3               ret                         
Word : 0x0f73389f0 :: Compiled at : 0x0f493b0e2
 =============================

 5040

Timer [ 1 ] : elapsed time = 0.048968383 seconds
 =============================
::> 'wdiss' is being called at namespaces/test/dev.cft 134.12 <::
C.[34;49mfaccs[39;49m <:> cfrTil compiled word
SourceCode for [34;49mfaccs[39;49m :> 
[34;49mint faccs ( REG: n | EAX: rec -- EAX ) { rec = 1 ; while ( n > 1 ) { rec = rec * n ; n -- ; } } [39;49m
Source code file location of [34;49mfaccs[39;49m : "namespaces/test/dev.cft" at 55.1
Compiled with : optimizeOn, inlineOn -- starting at address : 0xf493af83 -- code size = 33 bytes
 -----------------------------
Word : [34;49mfaccs[39;49m : disassembly :> 
0xf493af83 8b1e             mov ebx, [esi]              
0xf493af85 c7c001000000     mov eax, 0x1                
0xf493af8b 81fb01000000     cmp ebx, 0x1                
0xf493af91 0f8e0a000000     jle 0xf493afa1              	< C.[34;49mfaccs[39;49m+30 >
0xf493af97 0fafc3           imul eax, ebx               
0xf493af9a ffcb             dec ebx                     
0xf493af9c e9eaffffff       jmp 0xf493af8b              	< C.[34;49mfaccs[39;49m+8 >
0xf493afa1 8906             mov [esi], eax              
0xf493afa3 c3               ret                         
Word : 0x0f73389f0 :: Compiled at : 0x0f493af83
 =============================

 5040

Timer [ 1 ] : elapsed time = 0.059985379 seconds